; Function Attrs: nounwind uwtable
define ptr @l_Lake_Toml_crlfAuxFn(ptr noundef readonly captures(none) %0, ptr noundef %1) local_unnamed_addr #1 {
  %3 = getelementptr inbounds nuw i8, ptr %0, i64 8
  %4 = load ptr, ptr %3, align 8, !tbaa !10
  %5 = getelementptr inbounds nuw i8, ptr %4, i64 8
  %6 = load ptr, ptr %5, align 8, !tbaa !10
  %7 = getelementptr inbounds nuw i8, ptr %1, i64 24
  %8 = load ptr, ptr %7, align 8, !tbaa !10
  %9 = ptrtoint ptr %8 to i64
  %10 = and i64 %9, 1
  %.not = icmp eq i64 %10, 0
  br i1 %.not, label %11, label %lean_string_utf8_at_end.exit

11:                                               ; preds = %2
  %.val.i = load i32, ptr %8, align 4, !tbaa !4
  %12 = icmp sgt i32 %.val.i, 0
  br i1 %12, label %13, label %15, !prof !9

13:                                               ; preds = %11
  %14 = add nuw i32 %.val.i, 1
  store i32 %14, ptr %8, align 4, !tbaa !4
  br label %32

15:                                               ; preds = %11
  %.not.i35 = icmp eq i32 %.val.i, 0
  br i1 %.not.i35, label %lean_dec.exit, label %16

16:                                               ; preds = %15
  tail call void @lean_inc_ref_cold(ptr noundef nonnull %8) #4
  %.pr = load i32, ptr %8, align 4, !tbaa !4
  br label %32

lean_string_utf8_at_end.exit:                     ; preds = %2
  %17 = lshr i64 %9, 1
  %18 = getelementptr i8, ptr %6, i64 8
  %.val.i37 = load i64, ptr %18, align 8, !tbaa !12
  %19 = add i64 %.val.i37, -1
  %.not43 = icmp ult i64 %17, %19
  br i1 %.not43, label %20, label %lean_dec.exit

20:                                               ; preds = %lean_string_utf8_at_end.exit
  %21 = getelementptr inbounds nuw i8, ptr %6, i64 32
  %22 = getelementptr inbounds nuw i8, ptr %21, i64 %17
  %23 = load i8, ptr %22, align 1, !tbaa !14
  %24 = icmp sgt i8 %23, -1
  br i1 %24, label %25, label %27

25:                                               ; preds = %20
  %26 = zext nneg i8 %23 to i32
  br label %lean_string_utf8_get_fast.exit

27:                                               ; preds = %20
  %28 = tail call i32 @lean_string_utf8_get_fast_cold(ptr noundef nonnull %21, i64 noundef %17, i64 noundef %.val.i37, i8 noundef zeroext %23) #4
  br label %lean_string_utf8_get_fast.exit

lean_string_utf8_get_fast.exit:                   ; preds = %25, %27
  %.0.i = phi i32 [ %26, %25 ], [ %28, %27 ]
  %.not44 = icmp eq i32 %.0.i, 10
  br i1 %.not44, label %lean_dec.exit29, label %lean_dec.exit30

lean_dec.exit30:                                  ; preds = %lean_string_utf8_get_fast.exit
  %29 = load ptr, ptr @l_Lake_Toml_crlfAuxFn___closed__1, align 8, !tbaa !10
  %30 = tail call ptr @l_Lean_Parser_ParserState_mkUnexpectedError(ptr noundef nonnull %1, ptr noundef %29, ptr noundef nonnull inttoptr (i64 1 to ptr), i8 noundef zeroext 1) #4
  br label %41

lean_dec.exit29:                                  ; preds = %lean_string_utf8_get_fast.exit
  %31 = tail call ptr @l_Lean_Parser_ParserState_next_x27(ptr noundef nonnull %1, ptr noundef nonnull %6, ptr noundef %8, ptr noundef nonnull inttoptr (i64 1 to ptr)) #4
  br label %41

32:                                               ; preds = %13, %16
  %33 = phi i32 [ %14, %13 ], [ %.pr, %16 ]
  %34 = icmp sgt i32 %33, 1
  br i1 %34, label %35, label %37, !prof !15

35:                                               ; preds = %32
  %36 = add nsw i32 %33, -1
  store i32 %36, ptr %8, align 4, !tbaa !4
  br label %lean_dec.exit

37:                                               ; preds = %32
  %.not.i33 = icmp eq i32 %33, 0
  br i1 %.not.i33, label %lean_dec.exit, label %38

38:                                               ; preds = %37
  tail call void @lean_dec_ref_cold(ptr noundef nonnull %8) #4
  br label %lean_dec.exit

lean_dec.exit:                                    ; preds = %lean_string_utf8_at_end.exit, %15, %38, %37, %35
  %39 = load ptr, ptr @l_Lake_Toml_crlfAuxFn___closed__1, align 8, !tbaa !10
  %40 = tail call ptr @l_Lean_Parser_ParserState_mkUnexpectedError(ptr noundef nonnull %1, ptr noundef %39, ptr noundef nonnull inttoptr (i64 1 to ptr), i8 noundef zeroext 1) #4
  br label %41

41:                                               ; preds = %lean_dec.exit30, %lean_dec.exit29, %lean_dec.exit
  %.1 = phi ptr [ %40, %lean_dec.exit ], [ %30, %lean_dec.exit30 ], [ %31, %lean_dec.exit29 ]
  ret ptr %.1
}